target datalayout = "e-m:e-p270:32:32-p271:32:32-p272:64:64-i64:64-i128:128-f80:128-n8:16:32:64-S128"
target triple = "x86_64-pc-linux-gnu"

@hf_atm_lan_destination_tag = internal global i32 0, align 4
@hf_atm_lan_destination_mac = internal global i32 0, align 4
@hf_atm_lan_destination_route_desc = internal global i32 0, align 4
@hf_atm_lan_destination_lan_id = internal global i32 0, align 4
@hf_atm_lan_destination_bridge_num = internal global i32 0, align 4
@ett_atm_lane_lc_lan_dest = internal global i32 0, align 4
@ett_atm_lane_lc_lan_dest_rd = internal global i32 0, align 4
@.str.352 = private unnamed_addr constant [19 x i8] c"%s LAN destination\00", align 1

; Function Attrs: null_pointer_is_valid sspstrong uwtable
define internal void @dissect_lan_destination(ptr noundef %0, i32 noundef %1, ptr noundef %2, ptr noundef %3) #1 {
  %5 = alloca ptr, align 8
  %6 = alloca i32, align 4
  %7 = alloca ptr, align 8
  %8 = alloca ptr, align 8
  %9 = alloca ptr, align 8
  %10 = alloca ptr, align 8
  %11 = alloca i16, align 2
  %12 = alloca ptr, align 8
  store ptr %0, ptr %5, align 8
  store i32 %1, ptr %6, align 4
  store ptr %2, ptr %7, align 8
  store ptr %3, ptr %8, align 8
  call void @llvm.lifetime.start.p0(i64 8, ptr %9) #9
  call void @llvm.lifetime.start.p0(i64 8, ptr %10) #9
  call void @llvm.lifetime.start.p0(i64 2, ptr %11) #9
  call void @llvm.lifetime.start.p0(i64 8, ptr %12) #9
  %13 = load ptr, ptr %8, align 8
  %14 = load ptr, ptr %5, align 8
  %15 = load i32, ptr %6, align 4
  %16 = load i32, ptr @ett_atm_lane_lc_lan_dest, align 4
  %17 = load ptr, ptr %7, align 8
  %18 = call ptr (ptr, ptr, i32, i32, i32, ptr, ptr, ...) @proto_tree_add_subtree_format(ptr noundef %13, ptr noundef %14, i32 noundef %15, i32 noundef 8, i32 noundef %16, ptr noundef null, ptr noundef @.str.352, ptr noundef %17)
  store ptr %18, ptr %10, align 8
  %19 = load ptr, ptr %5, align 8
  %20 = load i32, ptr %6, align 4
  %21 = call zeroext i16 @tvb_get_ntohs(ptr noundef %19, i32 noundef %20)
  store i16 %21, ptr %11, align 2
  %22 = load ptr, ptr %10, align 8
  %23 = load i32, ptr @hf_atm_lan_destination_tag, align 4
  %24 = load ptr, ptr %5, align 8
  %25 = load i32, ptr %6, align 4
  %26 = call ptr @proto_tree_add_item(ptr noundef %22, i32 noundef %23, ptr noundef %24, i32 noundef %25, i32 noundef 2, i32 noundef 0)
  %27 = load i32, ptr %6, align 4
  %28 = add i32 %27, 2
  store i32 %28, ptr %6, align 4
  %29 = load i16, ptr %11, align 2
  %30 = zext i16 %29 to i32
  switch i32 %30, label %58 [
    i32 1, label %31
    i32 2, label %37
  ]

31:                                               ; preds = %4
  %32 = load ptr, ptr %10, align 8
  %33 = load i32, ptr @hf_atm_lan_destination_mac, align 4
  %34 = load ptr, ptr %5, align 8
  %35 = load i32, ptr %6, align 4
  %36 = call ptr @proto_tree_add_item(ptr noundef %32, i32 noundef %33, ptr noundef %34, i32 noundef %35, i32 noundef 6, i32 noundef 0)
  br label %58

37:                                               ; preds = %4
  %38 = load i32, ptr %6, align 4
  %39 = add i32 %38, 4
  store i32 %39, ptr %6, align 4
  %40 = load ptr, ptr %10, align 8
  %41 = load i32, ptr @hf_atm_lan_destination_route_desc, align 4
  %42 = load ptr, ptr %5, align 8
  %43 = load i32, ptr %6, align 4
  %44 = call ptr @proto_tree_add_item(ptr noundef %40, i32 noundef %41, ptr noundef %42, i32 noundef %43, i32 noundef 2, i32 noundef -2147483648)
  store ptr %44, ptr %9, align 8
  %45 = load ptr, ptr %9, align 8
  %46 = load i32, ptr @ett_atm_lane_lc_lan_dest_rd, align 4
  %47 = call ptr @proto_item_add_subtree(ptr noundef %45, i32 noundef %46)
  store ptr %47, ptr %12, align 8
  %48 = load ptr, ptr %12, align 8
  %49 = load i32, ptr @hf_atm_lan_destination_lan_id, align 4
  %50 = load ptr, ptr %5, align 8
  %51 = load i32, ptr %6, align 4
  %52 = call ptr @proto_tree_add_item(ptr noundef %48, i32 noundef %49, ptr noundef %50, i32 noundef %51, i32 noundef 2, i32 noundef -2147483648)
  %53 = load ptr, ptr %12, align 8
  %54 = load i32, ptr @hf_atm_lan_destination_bridge_num, align 4
  %55 = load ptr, ptr %5, align 8
  %56 = load i32, ptr %6, align 4
  %57 = call ptr @proto_tree_add_item(ptr noundef %53, i32 noundef %54, ptr noundef %55, i32 noundef %56, i32 noundef 2, i32 noundef -2147483648)
  br label %58

58:                                               ; preds = %4, %37, %31
  call void @llvm.lifetime.end.p0(i64 8, ptr %12) #9
  call void @llvm.lifetime.end.p0(i64 2, ptr %11) #9
  call void @llvm.lifetime.end.p0(i64 8, ptr %10) #9
  call void @llvm.lifetime.end.p0(i64 8, ptr %9) #9
  ret void
}