; Function Attrs: null_pointer_is_valid sspstrong uwtable
define internal fastcc void @dissect_lan_destination(ptr noundef %0, i32 noundef range(i32 16, 25) %1, ptr noundef %2, ptr noundef %3) unnamed_addr #1 {
  %5 = load i32, ptr @ett_atm_lane_lc_lan_dest, align 4
  %6 = tail call ptr (ptr, ptr, i32, i32, i32, ptr, ptr, ...) @proto_tree_add_subtree_format(ptr noundef %3, ptr noundef %0, i32 noundef %1, i32 noundef 8, i32 noundef %5, ptr noundef null, ptr noundef nonnull @.str.352, ptr noundef %2)
  %7 = tail call zeroext i16 @tvb_get_ntohs(ptr noundef %0, i32 noundef %1)
  %8 = load i32, ptr @hf_atm_lan_destination_tag, align 4
  %9 = tail call ptr @proto_tree_add_item(ptr noundef %6, i32 noundef %8, ptr noundef %0, i32 noundef %1, i32 noundef 2, i32 noundef 0)
  switch i16 %7, label %24 [
    i16 1, label %10
    i16 2, label %14
  ]

10:                                               ; preds = %4
  %11 = add nuw nsw i32 %1, 2
  %12 = load i32, ptr @hf_atm_lan_destination_mac, align 4
  %13 = tail call ptr @proto_tree_add_item(ptr noundef %6, i32 noundef %12, ptr noundef %0, i32 noundef %11, i32 noundef 6, i32 noundef 0)
  br label %24

14:                                               ; preds = %4
  %15 = add nuw nsw i32 %1, 6
  %16 = load i32, ptr @hf_atm_lan_destination_route_desc, align 4
  %17 = tail call ptr @proto_tree_add_item(ptr noundef %6, i32 noundef %16, ptr noundef %0, i32 noundef %15, i32 noundef 2, i32 noundef -2147483648)
  %18 = load i32, ptr @ett_atm_lane_lc_lan_dest_rd, align 4
  %19 = tail call ptr @proto_item_add_subtree(ptr noundef %17, i32 noundef %18)
  %20 = load i32, ptr @hf_atm_lan_destination_lan_id, align 4
  %21 = tail call ptr @proto_tree_add_item(ptr noundef %19, i32 noundef %20, ptr noundef %0, i32 noundef %15, i32 noundef 2, i32 noundef -2147483648)
  %22 = load i32, ptr @hf_atm_lan_destination_bridge_num, align 4
  %23 = tail call ptr @proto_tree_add_item(ptr noundef %19, i32 noundef %22, ptr noundef %0, i32 noundef %15, i32 noundef 2, i32 noundef -2147483648)
  br label %24

24:                                               ; preds = %14, %10, %4
  ret void
}